target datalayout = "e-m:e-p270:32:32-p271:32:32-p272:64:64-i64:64-i128:128-f80:128-n8:16:32:64-S128"
target triple = "x86_64-pc-linux-gnu"

%union.pthread_mutex_t = type { %struct.__pthread_mutex_s }
%struct.__pthread_mutex_s = type { i32, i32, i32, i32, i32, i16, i16, %struct.__pthread_internal_list }
%struct.__pthread_internal_list = type { ptr, ptr }
%"class.(anonymous namespace)::mutexor" = type { ptr }
%"struct.(anonymous namespace)::heap_node" = type { i16, i16 }

@_ZN12_GLOBAL__N_110heap_mutexE = internal global %union.pthread_mutex_t zeroinitializer, align 8
@_ZN12_GLOBAL__N_18freelistE = internal global ptr null, align 8
@_ZN12_GLOBAL__N_18list_endE = internal global ptr getelementptr (i8, ptr @_ZN12_GLOBAL__N_14heapE, i64 512), align 8
@_ZN12_GLOBAL__N_14heapE = internal global [512 x i8] zeroinitializer, align 16

; Function Attrs: noinline noreturn nounwind uwtable
define linkonce_odr hidden void @__clang_call_terminate(ptr noundef %0) #10 comdat {
  %2 = call ptr @__cxa_begin_catch(ptr %0) #11
  call void @_ZSt9terminatev() #15
  unreachable
}

; Function Attrs: inlinehint mustprogress nounwind uwtable
define linkonce_odr hidden noundef i32 @_ZNSt3__121__libcpp_mutex_unlockB8ne210000EP15pthread_mutex_t(ptr noundef %0) #2 comdat {
  %2 = alloca ptr, align 8
  store ptr %0, ptr %2, align 8, !tbaa !9
  %3 = load ptr, ptr %2, align 8, !tbaa !9
  %4 = call i32 @pthread_mutex_unlock(ptr noundef %3) #11
  ret i32 %4
}

; Function Attrs: inlinehint mustprogress nounwind uwtable
define linkonce_odr hidden noundef i32 @_ZNSt3__119__libcpp_mutex_lockB8ne210000EP15pthread_mutex_t(ptr noundef %0) #2 comdat {
  %2 = alloca ptr, align 8
  store ptr %0, ptr %2, align 8, !tbaa !9
  %3 = load ptr, ptr %2, align 8, !tbaa !9
  %4 = call i32 @pthread_mutex_lock(ptr noundef %3) #11
  ret i32 %4
}

; Function Attrs: mustprogress nounwind uwtable
define internal noundef ptr @_ZN12_GLOBAL__N_116node_from_offsetEt(i16 noundef zeroext %0) #5 {
  %2 = alloca i16, align 2
  store i16 %0, ptr %2, align 2, !tbaa !18
  %3 = load i16, ptr %2, align 2, !tbaa !18
  %4 = zext i16 %3 to i64
  %5 = mul i64 %4, 4
  %6 = getelementptr inbounds nuw i8, ptr @_ZN12_GLOBAL__N_14heapE, i64 %5
  ret ptr %6
}

; Function Attrs: mustprogress nounwind uwtable
define internal noundef zeroext i16 @_ZN12_GLOBAL__N_116offset_from_nodeEPKNS_9heap_nodeE(ptr noundef %0) #5 {
  %2 = alloca ptr, align 8
  store ptr %0, ptr %2, align 8, !tbaa !11
  %3 = load ptr, ptr %2, align 8, !tbaa !11
  %4 = ptrtoint ptr %3 to i64
  %5 = sub i64 %4, ptrtoint (ptr @_ZN12_GLOBAL__N_14heapE to i64)
  %6 = udiv i64 %5, 4
  %7 = trunc i64 %6 to i16
  ret i16 %7
}

; Function Attrs: mustprogress nounwind uwtable
define internal void @_ZN12_GLOBAL__N_17mutexorD2Ev(ptr noundef nonnull align 8 dereferenceable(8) %0) unnamed_addr #5 align 2 personality ptr @__gxx_personality_v0 {
  %2 = alloca ptr, align 8
  store ptr %0, ptr %2, align 8, !tbaa !23
  %3 = load ptr, ptr %2, align 8
  %4 = getelementptr inbounds nuw %"class.(anonymous namespace)::mutexor", ptr %3, i32 0, i32 0
  %5 = load ptr, ptr %4, align 8, !tbaa !25
  %6 = invoke noundef i32 @_ZNSt3__121__libcpp_mutex_unlockB8ne210000EP15pthread_mutex_t(ptr noundef %5)
          to label %7 unwind label %8

7:                                                ; preds = %1
  ret void

8:                                                ; preds = %1
  %9 = landingpad { ptr, i32 }
          catch ptr null
  %10 = extractvalue { ptr, i32 } %9, 0
  call void @__clang_call_terminate(ptr %10) #15
  unreachable
}

; Function Attrs: mustprogress nounwind uwtable
define internal noundef ptr @_ZN12_GLOBAL__N_15afterEPNS_9heap_nodeE(ptr noundef %0) #5 {
  %2 = alloca ptr, align 8
  store ptr %0, ptr %2, align 8, !tbaa !11
  %3 = load ptr, ptr %2, align 8, !tbaa !11
  %4 = load ptr, ptr %2, align 8, !tbaa !11
  %5 = getelementptr inbounds nuw %"struct.(anonymous namespace)::heap_node", ptr %4, i32 0, i32 1
  %6 = load i16, ptr %5, align 2, !tbaa !15
  %7 = zext i16 %6 to i32
  %8 = sext i32 %7 to i64
  %9 = getelementptr inbounds %"struct.(anonymous namespace)::heap_node", ptr %3, i64 %8
  ret ptr %9
}

; Function Attrs: mustprogress uwtable
define internal void @_ZN12_GLOBAL__N_17mutexorC2EP15pthread_mutex_t(ptr noundef nonnull align 8 dereferenceable(8) %0, ptr noundef %1) unnamed_addr #0 align 2 {
  %3 = alloca ptr, align 8
  %4 = alloca ptr, align 8
  store ptr %0, ptr %3, align 8, !tbaa !23
  store ptr %1, ptr %4, align 8, !tbaa !9
  %5 = load ptr, ptr %3, align 8
  %6 = getelementptr inbounds nuw %"class.(anonymous namespace)::mutexor", ptr %5, i32 0, i32 0
  %7 = load ptr, ptr %4, align 8, !tbaa !9
  store ptr %7, ptr %6, align 8, !tbaa !25
  %8 = getelementptr inbounds nuw %"class.(anonymous namespace)::mutexor", ptr %5, i32 0, i32 0
  %9 = load ptr, ptr %8, align 8, !tbaa !25
  %10 = call noundef i32 @_ZNSt3__119__libcpp_mutex_lockB8ne210000EP15pthread_mutex_t(ptr noundef %9)
  ret void
}

; Function Attrs: inlinehint mustprogress nounwind uwtable
define linkonce_odr hidden void @_ZNSt3__121__libcpp_aligned_freeB8ne210000EPv(ptr noundef %0) #2 comdat {
  %2 = alloca ptr, align 8
  store ptr %0, ptr %2, align 8, !tbaa !9
  %3 = load ptr, ptr %2, align 8, !tbaa !9
  call void @free(ptr noundef %3) #11
  ret void
}

; Function Attrs: mustprogress uwtable
define internal void @_ZN12_GLOBAL__N_113fallback_freeEPv(ptr noundef %0) #0 personality ptr @__gxx_personality_v0 {
  %2 = alloca ptr, align 8
  %3 = alloca ptr, align 8
  %4 = alloca ptr, align 8
  %5 = alloca ptr, align 8
  %6 = alloca %"class.(anonymous namespace)::mutexor", align 8
  %7 = alloca ptr, align 8
  %8 = alloca i32, align 4
  %9 = alloca i32, align 4
  store ptr %0, ptr %2, align 8, !tbaa !9
  call void @llvm.lifetime.start.p0(i64 8, ptr %3) #11
  %10 = load ptr, ptr %2, align 8, !tbaa !9
  %11 = getelementptr inbounds %"struct.(anonymous namespace)::heap_node", ptr %10, i64 -1
  store ptr %11, ptr %3, align 8, !tbaa !11
  call void @llvm.lifetime.start.p0(i64 8, ptr %4) #11
  call void @llvm.lifetime.start.p0(i64 8, ptr %5) #11
  call void @llvm.lifetime.start.p0(i64 8, ptr %6) #11
  call void @_ZN12_GLOBAL__N_17mutexorC2EP15pthread_mutex_t(ptr noundef nonnull align 8 dereferenceable(8) %6, ptr noundef @_ZN12_GLOBAL__N_110heap_mutexE)
  %12 = load ptr, ptr @_ZN12_GLOBAL__N_18freelistE, align 8, !tbaa !11
  store ptr %12, ptr %4, align 8, !tbaa !11
  store ptr null, ptr %5, align 8, !tbaa !11
  br label %13

13:                                               ; preds = %81, %1
  %14 = load ptr, ptr %4, align 8, !tbaa !11
  %15 = icmp ne ptr %14, null
  br i1 %15, label %16, label %20

16:                                               ; preds = %13
  %17 = load ptr, ptr %4, align 8, !tbaa !11
  %18 = load ptr, ptr @_ZN12_GLOBAL__N_18list_endE, align 8, !tbaa !11
  %19 = icmp ne ptr %17, %18
  br label %20

20:                                               ; preds = %16, %13
  %21 = phi i1 [ false, %13 ], [ %19, %16 ]
  br i1 %21, label %22, label %87

22:                                               ; preds = %20
  %23 = load ptr, ptr %4, align 8, !tbaa !11
  %24 = invoke noundef ptr @_ZN12_GLOBAL__N_15afterEPNS_9heap_nodeE(ptr noundef %23)
          to label %25 unwind label %41

25:                                               ; preds = %22
  %26 = load ptr, ptr %3, align 8, !tbaa !11
  %27 = icmp eq ptr %24, %26
  br i1 %27, label %28, label %45

28:                                               ; preds = %25
  %29 = load ptr, ptr %4, align 8, !tbaa !11
  %30 = getelementptr inbounds nuw %"struct.(anonymous namespace)::heap_node", ptr %29, i32 0, i32 1
  %31 = load i16, ptr %30, align 2, !tbaa !15
  %32 = zext i16 %31 to i32
  %33 = load ptr, ptr %3, align 8, !tbaa !11
  %34 = getelementptr inbounds nuw %"struct.(anonymous namespace)::heap_node", ptr %33, i32 0, i32 1
  %35 = load i16, ptr %34, align 2, !tbaa !15
  %36 = zext i16 %35 to i32
  %37 = add nsw i32 %32, %36
  %38 = trunc i32 %37 to i16
  %39 = load ptr, ptr %4, align 8, !tbaa !11
  %40 = getelementptr inbounds nuw %"struct.(anonymous namespace)::heap_node", ptr %39, i32 0, i32 1
  store i16 %38, ptr %40, align 2, !tbaa !15
  store i32 1, ptr %9, align 4
  br label %93

41:                                               ; preds = %45, %22
  %42 = landingpad { ptr, i32 }
          cleanup
  %43 = extractvalue { ptr, i32 } %42, 0
  store ptr %43, ptr %7, align 8
  %44 = extractvalue { ptr, i32 } %42, 1
  store i32 %44, ptr %8, align 4
  call void @_ZN12_GLOBAL__N_17mutexorD2Ev(ptr noundef nonnull align 8 dereferenceable(8) %6) #11
  call void @llvm.lifetime.end.p0(i64 8, ptr %6) #11
  call void @llvm.lifetime.end.p0(i64 8, ptr %5) #11
  call void @llvm.lifetime.end.p0(i64 8, ptr %4) #11
  call void @llvm.lifetime.end.p0(i64 8, ptr %3) #11
  br label %96

45:                                               ; preds = %25
  %46 = load ptr, ptr %3, align 8, !tbaa !11
  %47 = invoke noundef ptr @_ZN12_GLOBAL__N_15afterEPNS_9heap_nodeE(ptr noundef %46)
          to label %48 unwind label %41

48:                                               ; preds = %45
  %49 = load ptr, ptr %4, align 8, !tbaa !11
  %50 = icmp eq ptr %47, %49
  br i1 %50, label %51, label %79

51:                                               ; preds = %48
  %52 = load ptr, ptr %3, align 8, !tbaa !11
  %53 = getelementptr inbounds nuw %"struct.(anonymous namespace)::heap_node", ptr %52, i32 0, i32 1
  %54 = load i16, ptr %53, align 2, !tbaa !15
  %55 = zext i16 %54 to i32
  %56 = load ptr, ptr %4, align 8, !tbaa !11
  %57 = getelementptr inbounds nuw %"struct.(anonymous namespace)::heap_node", ptr %56, i32 0, i32 1
  %58 = load i16, ptr %57, align 2, !tbaa !15
  %59 = zext i16 %58 to i32
  %60 = add nsw i32 %55, %59
  %61 = trunc i32 %60 to i16
  %62 = load ptr, ptr %3, align 8, !tbaa !11
  %63 = getelementptr inbounds nuw %"struct.(anonymous namespace)::heap_node", ptr %62, i32 0, i32 1
  store i16 %61, ptr %63, align 2, !tbaa !15
  %64 = load ptr, ptr %5, align 8, !tbaa !11
  %65 = icmp eq ptr %64, null
  br i1 %65, label %66, label %73

66:                                               ; preds = %51
  %67 = load ptr, ptr %3, align 8, !tbaa !11
  store ptr %67, ptr @_ZN12_GLOBAL__N_18freelistE, align 8, !tbaa !11
  %68 = load ptr, ptr %4, align 8, !tbaa !11
  %69 = getelementptr inbounds nuw %"struct.(anonymous namespace)::heap_node", ptr %68, i32 0, i32 0
  %70 = load i16, ptr %69, align 2, !tbaa !19
  %71 = load ptr, ptr %3, align 8, !tbaa !11
  %72 = getelementptr inbounds nuw %"struct.(anonymous namespace)::heap_node", ptr %71, i32 0, i32 0
  store i16 %70, ptr %72, align 2, !tbaa !19
  br label %78

73:                                               ; preds = %51
  %74 = load ptr, ptr %3, align 8, !tbaa !11
  %75 = call noundef zeroext i16 @_ZN12_GLOBAL__N_116offset_from_nodeEPKNS_9heap_nodeE(ptr noundef %74)
  %76 = load ptr, ptr %5, align 8, !tbaa !11
  %77 = getelementptr inbounds nuw %"struct.(anonymous namespace)::heap_node", ptr %76, i32 0, i32 0
  store i16 %75, ptr %77, align 2, !tbaa !19
  br label %78

78:                                               ; preds = %73, %66
  store i32 1, ptr %9, align 4
  br label %93

79:                                               ; preds = %48
  br label %80

80:                                               ; preds = %79
  br label %81

81:                                               ; preds = %80
  %82 = load ptr, ptr %4, align 8, !tbaa !11
  store ptr %82, ptr %5, align 8, !tbaa !11
  %83 = load ptr, ptr %4, align 8, !tbaa !11
  %84 = getelementptr inbounds nuw %"struct.(anonymous namespace)::heap_node", ptr %83, i32 0, i32 0
  %85 = load i16, ptr %84, align 2, !tbaa !19
  %86 = call noundef ptr @_ZN12_GLOBAL__N_116node_from_offsetEt(i16 noundef zeroext %85)
  store ptr %86, ptr %4, align 8, !tbaa !11
  br label %13, !llvm.loop !22

87:                                               ; preds = %20
  %88 = load ptr, ptr @_ZN12_GLOBAL__N_18freelistE, align 8, !tbaa !11
  %89 = call noundef zeroext i16 @_ZN12_GLOBAL__N_116offset_from_nodeEPKNS_9heap_nodeE(ptr noundef %88)
  %90 = load ptr, ptr %3, align 8, !tbaa !11
  %91 = getelementptr inbounds nuw %"struct.(anonymous namespace)::heap_node", ptr %90, i32 0, i32 0
  store i16 %89, ptr %91, align 2, !tbaa !19
  %92 = load ptr, ptr %3, align 8, !tbaa !11
  store ptr %92, ptr @_ZN12_GLOBAL__N_18freelistE, align 8, !tbaa !11
  store i32 0, ptr %9, align 4
  br label %93

93:                                               ; preds = %87, %78, %28
  call void @_ZN12_GLOBAL__N_17mutexorD2Ev(ptr noundef nonnull align 8 dereferenceable(8) %6) #11
  call void @llvm.lifetime.end.p0(i64 8, ptr %6) #11
  call void @llvm.lifetime.end.p0(i64 8, ptr %5) #11
  call void @llvm.lifetime.end.p0(i64 8, ptr %4) #11
  call void @llvm.lifetime.end.p0(i64 8, ptr %3) #11
  %94 = load i32, ptr %9, align 4
  switch i32 %94, label %101 [
    i32 0, label %95
    i32 1, label %95
  ]

95:                                               ; preds = %93, %93
  ret void

96:                                               ; preds = %41
  %97 = load ptr, ptr %7, align 8
  %98 = load i32, ptr %8, align 4
  %99 = insertvalue { ptr, i32 } poison, ptr %97, 0
  %100 = insertvalue { ptr, i32 } %99, i32 %98, 1
  resume { ptr, i32 } %100

101:                                              ; preds = %93
  unreachable
}

; Function Attrs: mustprogress nounwind uwtable
define internal noundef zeroext i1 @_ZN12_GLOBAL__N_115is_fallback_ptrEPv(ptr noundef %0) #5 {
  %2 = alloca ptr, align 8
  store ptr %0, ptr %2, align 8, !tbaa !9
  %3 = load ptr, ptr %2, align 8, !tbaa !9
  %4 = icmp uge ptr %3, @_ZN12_GLOBAL__N_14heapE
  br i1 %4, label %5, label %8

5:                                                ; preds = %1
  %6 = load ptr, ptr %2, align 8, !tbaa !9
  %7 = icmp ult ptr %6, getelementptr inbounds nuw (i8, ptr @_ZN12_GLOBAL__N_14heapE, i64 512)
  br label %8

8:                                                ; preds = %5, %1
  %9 = phi i1 [ false, %1 ], [ %7, %5 ]
  ret i1 %9
}

; Function Attrs: mustprogress uwtable
define hidden void @_ZN10__cxxabiv128__aligned_free_with_fallbackEPv(ptr noundef %0) #0 {
  %2 = alloca ptr, align 8
  store ptr %0, ptr %2, align 8, !tbaa !9
  %3 = load ptr, ptr %2, align 8, !tbaa !9
  %4 = call noundef zeroext i1 @_ZN12_GLOBAL__N_115is_fallback_ptrEPv(ptr noundef %3)
  br i1 %4, label %5, label %7

5:                                                ; preds = %1
  %6 = load ptr, ptr %2, align 8, !tbaa !9
  call void @_ZN12_GLOBAL__N_113fallback_freeEPv(ptr noundef %6)
  br label %9

7:                                                ; preds = %1
  %8 = load ptr, ptr %2, align 8, !tbaa !9
  call void @_ZNSt3__121__libcpp_aligned_freeB8ne210000EPv(ptr noundef %8)
  br label %9

9:                                                ; preds = %7, %5
  ret void
}